Certificate:
    Data:
        Version: 3 (0x2)
        Serial Number: 1 (0x1)
        Signature Algorithm: sha1WithRSAEncryption
        Issuer: DC=org, DC=simple, O=Simple Inc, OU=Simple Root CA, CN=Simple Root CA
        Validity
            Not Before: May 16 11:30:26 2015 GMT
            Not After : May 15 11:30:26 2025 GMT
        Subject: DC=org, DC=simple, O=Simple Inc, OU=Simple Root CA, CN=Simple Root CA
        Subject Public Key Info:
            Public Key Algorithm: rsaEncryption
                Public-Key: (2048 bit)
                Modulus:
                    00:af:db:81:7b:4e:ac:f1:af:79:96:c1:5b:b1:9a:
                    8b:fc:99:6c:71:02:48:4e:8d:07:f7:ac:4d:fa:07:
                    5e:b1:fb:e0:33:ea:1a:86:75:2d:fd:e0:24:8e:c5:
                    79:dc:df:ab:2f:97:d3:58:79:4b:05:9c:6f:43:07:
                    d5:02:f1:84:20:1a:a9:5a:7a:45:8f:30:44:de:c3:
                    f3:13:0f:f1:22:b5:56:02:ca:74:cd:3e:af:8d:72:
                    81:cb:3f:15:49:de:36:48:63:0f:47:f5:cf:9c:2c:
                    ce:af:ae:0d:96:2b:6c:75:5b:d4:26:4a:8a:99:66:
                    86:75:3a:95:9e:85:de:98:97:f0:a1:a3:15:0b:f8:
                    4e:16:8f:7d:29:55:79:04:31:8e:49:e3:9f:72:62:
                    7b:b1:8f:2f:b9:eb:21:b5:3c:d0:17:11:62:e2:2b:
                    f8:2e:0e:4d:9b:ea:f8:d7:55:d3:12:63:1c:6c:73:
                    04:41:de:e3:f2:6e:76:49:8a:fc:7c:59:70:30:26:
                    a1:2b:06:99:50:8e:b3:3c:4d:d4:4d:ed:32:78:37:
                    4b:d7:d2:a4:5b:44:79:89:7e:6a:01:1b:5a:fa:05:
                    19:97:15:8a:41:cb:91:3d:d1:98:1a:c5:8e:6b:f9:
                    b4:50:7f:ad:52:bb:2c:31:d5:eb:ae:cf:f6:23:fa:
                    76:cf
                Exponent: 65537 (0x10001)
        X509v3 extensions:
            X509v3 Key Usage: critical
                Certificate Sign, CRL Sign
            X509v3 Basic Constraints: critical
                CA:TRUE
            X509v3 Subject Key Identifier: 
                91:3E:3F:08:0B:1D:EB:75:31:5D:51:FD:37:D5:7E:D7:10:2C:99:39
            X509v3 Authority Key Identifier: 
                keyid:91:3E:3F:08:0B:1D:EB:75:31:5D:51:FD:37:D5:7E:D7:10:2C:99:39

    Signature Algorithm: sha1WithRSAEncryption
        43:25:c6:22:81:c3:10:5b:81:57:0f:0c:c5:91:3c:51:66:c1:
        a8:6d:6b:c1:69:05:09:9a:11:41:b9:d2:73:e4:db:46:3f:ec:
        f8:5b:52:22:ee:29:4a:7b:31:4a:8b:57:14:86:63:1c:c1:c9:
        df:c7:ba:ad:29:23:ca:06:04:b5:7d:8a:89:4e:68:9d:85:64:
        54:21:3e:9f:bd:39:c9:77:55:2c:cd:be:c1:3d:95:14:2e:49:
        91:20:9c:59:41:93:72:79:c8:c3:b2:76:f1:02:63:e8:20:a2:
        82:82:99:77:af:56:45:af:b0:59:1b:88:af:9a:95:86:2d:27:
        d5:4b:ff:73:ea:e1:e8:f1:37:a3:e6:2a:02:9c:c3:e7:3b:31:
        52:8d:ff:95:5d:b6:b8:c2:5f:23:52:b9:9a:b7:a7:b4:cd:b1:
        68:83:bd:6b:6a:c6:78:af:ac:57:0b:a4:eb:c9:ca:18:bf:76:
        ed:76:72:e4:10:6d:96:04:53:0d:47:0a:ba:9c:2f:43:e7:30:
        18:bf:87:92:9c:7f:4b:57:d1:7e:45:ef:f3:ee:8e:39:ef:2e:
        b1:9f:3f:f9:e4:bc:1f:28:ea:9d:ca:0a:d8:1b:5c:c7:33:46:
        48:07:19:bf:49:ac:82:fe:67:79:95:15:ec:e8:40:57:df:42:
        32:18:93:6a
-----BEGIN CERTIFICATE-----
MIIDxjCCAq6gAwIBAgIBATANBgkqhkiG9w0BAQUFADB0MRMwEQYKCZImiZPyLGQB
GRYDb3JnMRYwFAYKCZImiZPyLGQBGRYGc2ltcGxlMRMwEQYDVQQKDApTaW1wbGUg
SW5jMRcwFQYDVQQLDA5TaW1wbGUgUm9vdCBDQTEXMBUGA1UEAwwOU2ltcGxlIFJv
b3QgQ0EwHhcNMTUwNTE2MTEzMDI2WhcNMjUwNTE1MTEzMDI2WjB0MRMwEQYKCZIm
iZPyLGQBGRYDb3JnMRYwFAYKCZImiZPyLGQBGRYGc2ltcGxlMRMwEQYDVQQKDApT
aW1wbGUgSW5jMRcwFQYDVQQLDA5TaW1wbGUgUm9vdCBDQTEXMBUGA1UEAwwOU2lt
cGxlIFJvb3QgQ0EwggEiMA0GCSqGSIb3DQEBAQUAA4IBDwAwggEKAoIBAQCv24F7
Tqzxr3mWwVuxmov8mWxxAkhOjQf3rE36B16x++Az6hqGdS394CSOxXnc36svl9NY
eUsFnG9DB9UC8YQgGqlaekWPMETew/MTD/EitVYCynTNPq+NcoHLPxVJ3jZIYw9H
9c+cLM6vrg2WK2x1W9QmSoqZZoZ1OpWehd6Yl/ChoxUL+E4Wj30pVXkEMY5J459y
Ynuxjy+56yG1PNAXEWLiK/guDk2b6vjXVdMSYxxscwRB3uPybnZJivx8WXAwJqEr
BplQjrM8TdRN7TJ4N0vX0qRbRHmJfmoBG1r6BRmXFYpBy5E90ZgaxY5r+bRQf61S
uywx1euuz/Yj+nbPAgMBAAGjYzBhMA4GA1UdDwEB/wQEAwIBBjAPBgNVHRMBAf8E
BTADAQH/MB0GA1UdDgQWBBSRPj8ICx3rdTFdUf031X7XECyZOTAfBgNVHSMEGDAW
gBSRPj8ICx3rdTFdUf031X7XECyZOTANBgkqhkiG9w0BAQUFAAOCAQEAQyXGIoHD
EFuBVw8MxZE8UWbBqG1rwWkFCZoRQbnSc+TbRj/s+FtSIu4pSnsxSotXFIZjHMHJ
38e6rSkjygYEtX2KiU5onYVkVCE+n705yXdVLM2+wT2VFC5JkSCcWUGTcnnIw7J2
8QJj6CCigoKZd69WRa+wWRuIr5qVhi0n1Uv/c+rh6PE3o+YqApzD5zsxUo3/lV22
uMJfI1K5mrentM2xaIO9a2rGeK+sVwuk68nKGL927XZy5BBtlgRTDUcKupwvQ+cw
GL+Hkpx/S1fRfkXv8+6OOe8usZ8/+eS8HyjqncoK2BtcxzNGSAcZv0msgv5neZUV
7OhAV99CMhiTag==
-----END CERTIFICATE-----
