Certificate:
    Data:
        Version: 3 (0x2)
        Serial Number: 2 (0x2)
        Signature Algorithm: sha1WithRSAEncryption
        Issuer: DC=org, DC=simple, O=Simple Inc, OU=Simple Root CA, CN=Simple Root CA
        Validity
            Not Before: May 16 11:34:42 2015 GMT
            Not After : May 15 11:34:42 2025 GMT
        Subject: DC=org, DC=simple, O=Simple Inc, OU=Simple Signing CA, CN=Simple Signing CA
        Subject Public Key Info:
            Public Key Algorithm: rsaEncryption
                Public-Key: (2048 bit)
                Modulus:
                    00:e2:cb:ec:cc:d3:50:1f:a4:e4:72:ee:db:a9:11:
                    d6:b7:0e:e7:a5:28:c9:16:90:90:96:8f:10:e3:0d:
                    3c:0a:13:26:1a:a9:e2:36:56:76:98:aa:fd:26:2c:
                    7d:cc:69:6b:5f:9e:c2:59:90:6a:6e:ce:d3:f7:e8:
                    bb:ef:63:fa:7c:9e:21:fa:1b:85:4a:5c:55:59:fa:
                    f2:fb:51:d7:7d:b2:ca:79:2a:b0:f1:25:4b:1e:1a:
                    bc:f9:34:e8:79:a2:56:ce:be:77:36:be:cc:1b:3c:
                    52:1b:ef:88:2a:7d:eb:52:1b:32:6b:5d:42:90:1c:
                    be:5a:f4:3e:3b:9b:0d:37:ff:ce:92:e1:af:59:81:
                    f6:b5:5c:d8:f7:04:4a:5d:89:0a:e1:76:68:ed:23:
                    02:c2:48:8d:41:2c:b7:24:6e:5f:79:da:3f:1c:f9:
                    78:0b:0b:4a:0a:6d:ee:d7:b1:28:fc:73:f4:bc:d5:
                    6c:31:fe:23:b4:1a:2c:1f:54:30:73:19:70:97:25:
                    7b:ec:d8:64:3f:e7:52:d1:d5:bc:86:8a:ca:d5:d2:
                    6f:61:e6:b1:d2:2b:95:03:81:a1:4b:71:94:f3:64:
                    88:b8:4a:38:0e:ad:29:dd:9d:84:50:e8:d3:34:ad:
                    5e:eb:77:9b:52:df:98:c7:79:6b:a7:09:47:72:a8:
                    ea:09
                Exponent: 65537 (0x10001)
        X509v3 extensions:
            X509v3 Key Usage: critical
                Certificate Sign, CRL Sign
            X509v3 Basic Constraints: critical
                CA:TRUE, pathlen:0
            X509v3 Subject Key Identifier: 
                A0:6E:B9:70:F9:8D:99:2D:A5:94:38:6B:91:B4:82:80:96:16:E3:B2
            X509v3 Authority Key Identifier: 
                keyid:91:3E:3F:08:0B:1D:EB:75:31:5D:51:FD:37:D5:7E:D7:10:2C:99:39

    Signature Algorithm: sha1WithRSAEncryption
        2c:63:4c:c0:ac:f3:02:39:49:e7:97:8b:41:61:80:2e:37:df:
        ee:27:4c:94:9e:ad:51:b6:14:89:b5:b5:6c:8b:9d:e5:b7:fe:
        f9:96:68:1f:35:2e:2b:b3:0c:41:27:d7:db:f0:50:d4:9f:35:
        6b:f6:26:29:0e:94:03:f6:35:33:36:63:f1:3e:83:db:a2:7d:
        58:78:ee:be:e4:b2:66:f2:ee:f6:57:28:19:43:22:5e:0e:a3:
        64:42:30:8c:10:f3:ee:d4:74:1b:59:e2:60:40:cf:a1:75:c2:
        77:4b:20:35:9b:b8:8c:4f:a6:96:38:b4:0d:90:c2:ab:ab:df:
        58:07:bb:e9:b0:bc:89:1b:ba:2d:57:63:c7:c6:a3:44:97:3c:
        8d:3d:b1:3f:c4:9c:2c:d1:87:92:84:10:66:86:65:90:30:74:
        9c:86:37:b5:3a:e8:49:ea:c5:b4:10:83:68:09:5e:01:81:02:
        db:b6:3c:10:af:0f:78:9d:41:dd:6e:b2:22:08:14:f7:4d:4a:
        aa:ee:77:08:d0:4e:0a:0b:36:56:1d:d8:68:36:5d:05:b3:1b:
        d1:a0:07:1a:b0:21:2d:93:e0:b9:f8:27:74:42:35:b1:9b:32:
        e2:50:0e:ae:fa:95:51:13:57:cd:d2:6b:0d:a8:11:bd:8d:f2:
        fb:7c:d6:96
-----BEGIN CERTIFICATE-----
MIIDzzCCAregAwIBAgIBAjANBgkqhkiG9w0BAQUFADB0MRMwEQYKCZImiZPyLGQB
GRYDb3JnMRYwFAYKCZImiZPyLGQBGRYGc2ltcGxlMRMwEQYDVQQKDApTaW1wbGUg
SW5jMRcwFQYDVQQLDA5TaW1wbGUgUm9vdCBDQTEXMBUGA1UEAwwOU2ltcGxlIFJv
b3QgQ0EwHhcNMTUwNTE2MTEzNDQyWhcNMjUwNTE1MTEzNDQyWjB6MRMwEQYKCZIm
iZPyLGQBGRYDb3JnMRYwFAYKCZImiZPyLGQBGRYGc2ltcGxlMRMwEQYDVQQKDApT
aW1wbGUgSW5jMRowGAYDVQQLDBFTaW1wbGUgU2lnbmluZyBDQTEaMBgGA1UEAwwR
U2ltcGxlIFNpZ25pbmcgQ0EwggEiMA0GCSqGSIb3DQEBAQUAA4IBDwAwggEKAoIB
AQDiy+zM01AfpORy7tupEda3DuelKMkWkJCWjxDjDTwKEyYaqeI2VnaYqv0mLH3M
aWtfnsJZkGpuztP36LvvY/p8niH6G4VKXFVZ+vL7Udd9ssp5KrDxJUseGrz5NOh5
olbOvnc2vswbPFIb74gqfetSGzJrXUKQHL5a9D47mw03/86S4a9Zgfa1XNj3BEpd
iQrhdmjtIwLCSI1BLLckbl952j8c+XgLC0oKbe7XsSj8c/S81Wwx/iO0GiwfVDBz
GXCXJXvs2GQ/51LR1byGisrV0m9h5rHSK5UDgaFLcZTzZIi4SjgOrSndnYRQ6NM0
rV7rd5tS35jHeWunCUdyqOoJAgMBAAGjZjBkMA4GA1UdDwEB/wQEAwIBBjASBgNV
HRMBAf8ECDAGAQH/AgEAMB0GA1UdDgQWBBSgbrlw+Y2ZLaWUOGuRtIKAlhbjsjAf
BgNVHSMEGDAWgBSRPj8ICx3rdTFdUf031X7XECyZOTANBgkqhkiG9w0BAQUFAAOC
AQEALGNMwKzzAjlJ55eLQWGALjff7idMlJ6tUbYUibW1bIud5bf++ZZoHzUuK7MM
QSfX2/BQ1J81a/YmKQ6UA/Y1MzZj8T6D26J9WHjuvuSyZvLu9lcoGUMiXg6jZEIw
jBDz7tR0G1niYEDPoXXCd0sgNZu4jE+mlji0DZDCq6vfWAe76bC8iRu6LVdjx8aj
RJc8jT2xP8ScLNGHkoQQZoZlkDB0nIY3tTroSerFtBCDaAleAYEC27Y8EK8PeJ1B
3W6yIggU901Kqu53CNBOCgs2Vh3YaDZdBbMb0aAHGrAhLZPgufgndEI1sZsy4lAO
rvqVURNXzdJrDagRvY3y+3zWlg==
-----END CERTIFICATE-----
