Certificate:
    Data:
        Version: 3 (0x2)
        Serial Number: 3 (0x3)
    Signature Algorithm: sha1WithRSAEncryption
        Issuer: DC=org, DC=simple, O=Simple Inc, OU=Simple Root CA, CN=Simple Root CA
        Validity
            Not Before: May 16 11:39:07 2015 GMT
            Not After : May 15 11:39:07 2025 GMT
        Subject: DC=org, DC=simple, O=Simple Inc, OU=Simple Signing CA, CN=Simple Signing CA
        Subject Public Key Info:
            Public Key Algorithm: rsaEncryption
                Public-Key: (2048 bit)
                Modulus:
                    00:e2:cb:ec:cc:d3:50:1f:a4:e4:72:ee:db:a9:11:
                    d6:b7:0e:e7:a5:28:c9:16:90:90:96:8f:10:e3:0d:
                    3c:0a:13:26:1a:a9:e2:36:56:76:98:aa:fd:26:2c:
                    7d:cc:69:6b:5f:9e:c2:59:90:6a:6e:ce:d3:f7:e8:
                    bb:ef:63:fa:7c:9e:21:fa:1b:85:4a:5c:55:59:fa:
                    f2:fb:51:d7:7d:b2:ca:79:2a:b0:f1:25:4b:1e:1a:
                    bc:f9:34:e8:79:a2:56:ce:be:77:36:be:cc:1b:3c:
                    52:1b:ef:88:2a:7d:eb:52:1b:32:6b:5d:42:90:1c:
                    be:5a:f4:3e:3b:9b:0d:37:ff:ce:92:e1:af:59:81:
                    f6:b5:5c:d8:f7:04:4a:5d:89:0a:e1:76:68:ed:23:
                    02:c2:48:8d:41:2c:b7:24:6e:5f:79:da:3f:1c:f9:
                    78:0b:0b:4a:0a:6d:ee:d7:b1:28:fc:73:f4:bc:d5:
                    6c:31:fe:23:b4:1a:2c:1f:54:30:73:19:70:97:25:
                    7b:ec:d8:64:3f:e7:52:d1:d5:bc:86:8a:ca:d5:d2:
                    6f:61:e6:b1:d2:2b:95:03:81:a1:4b:71:94:f3:64:
                    88:b8:4a:38:0e:ad:29:dd:9d:84:50:e8:d3:34:ad:
                    5e:eb:77:9b:52:df:98:c7:79:6b:a7:09:47:72:a8:
                    ea:09
                Exponent: 65537 (0x10001)
        X509v3 extensions:
            X509v3 Key Usage: critical
                Certificate Sign, CRL Sign
            X509v3 Basic Constraints: critical
                CA:TRUE, pathlen:0
            X509v3 Subject Key Identifier: 
                A0:6E:B9:70:F9:8D:99:2D:A5:94:38:6B:91:B4:82:80:96:16:E3:B2
            X509v3 Authority Key Identifier: 
                keyid:91:3E:3F:08:0B:1D:EB:75:31:5D:51:FD:37:D5:7E:D7:10:2C:99:39

    Signature Algorithm: sha1WithRSAEncryption
         34:12:f4:a3:ed:ed:e0:84:ba:26:72:6e:66:d9:7b:14:cf:f1:
         0b:bf:b8:b3:6a:61:f8:a2:d7:09:5f:26:4a:0e:cc:8f:13:74:
         5d:32:61:c6:52:87:1b:44:2a:3c:1b:7f:be:f7:c4:f6:b2:f8:
         c1:29:01:61:89:27:24:4e:b8:31:28:93:e3:1d:05:5a:2b:3a:
         b2:00:4f:42:77:0b:da:e9:fe:cf:fd:56:08:a4:f5:7f:2e:7d:
         e7:71:91:67:33:2b:8b:fb:77:82:76:ed:64:e5:f6:79:9f:a6:
         a0:b4:68:17:9d:6a:e0:45:56:e8:34:f7:37:21:d1:a9:44:94:
         b6:38:57:79:9f:d9:f2:e3:f1:7a:28:70:0e:82:93:6a:a3:31:
         86:bc:cb:70:3d:e0:f3:45:67:6f:72:38:c9:b5:89:8a:d0:92:
         ff:a8:50:f1:de:8c:01:f3:41:79:f3:31:b0:99:b1:3e:ce:0f:
         ae:07:a7:ca:ac:d9:2e:8b:8d:c2:ae:01:35:e4:b0:78:cf:e4:
         ba:bd:79:9c:00:21:87:e6:5d:af:e6:a1:97:7d:d2:ca:00:c1:
         dc:9d:a7:3f:9f:e0:ec:ec:3a:fe:40:e1:03:aa:c4:e2:d2:59:
         07:41:b3:04:ef:f5:2c:e0:c3:ad:02:34:83:41:cc:ec:fd:1f:
         af:16:f8:ac
-----BEGIN CERTIFICATE-----
MIIDzzCCAregAwIBAgIBAzANBgkqhkiG9w0BAQUFADB0MRMwEQYKCZImiZPyLGQB
GRYDb3JnMRYwFAYKCZImiZPyLGQBGRYGc2ltcGxlMRMwEQYDVQQKDApTaW1wbGUg
SW5jMRcwFQYDVQQLDA5TaW1wbGUgUm9vdCBDQTEXMBUGA1UEAwwOU2ltcGxlIFJv
b3QgQ0EwHhcNMTUwNTE2MTEzOTA3WhcNMjUwNTE1MTEzOTA3WjB6MRMwEQYKCZIm
iZPyLGQBGRYDb3JnMRYwFAYKCZImiZPyLGQBGRYGc2ltcGxlMRMwEQYDVQQKDApT
aW1wbGUgSW5jMRowGAYDVQQLDBFTaW1wbGUgU2lnbmluZyBDQTEaMBgGA1UEAwwR
U2ltcGxlIFNpZ25pbmcgQ0EwggEiMA0GCSqGSIb3DQEBAQUAA4IBDwAwggEKAoIB
AQDiy+zM01AfpORy7tupEda3DuelKMkWkJCWjxDjDTwKEyYaqeI2VnaYqv0mLH3M
aWtfnsJZkGpuztP36LvvY/p8niH6G4VKXFVZ+vL7Udd9ssp5KrDxJUseGrz5NOh5
olbOvnc2vswbPFIb74gqfetSGzJrXUKQHL5a9D47mw03/86S4a9Zgfa1XNj3BEpd
iQrhdmjtIwLCSI1BLLckbl952j8c+XgLC0oKbe7XsSj8c/S81Wwx/iO0GiwfVDBz
GXCXJXvs2GQ/51LR1byGisrV0m9h5rHSK5UDgaFLcZTzZIi4SjgOrSndnYRQ6NM0
rV7rd5tS35jHeWunCUdyqOoJAgMBAAGjZjBkMA4GA1UdDwEB/wQEAwIBBjASBgNV
HRMBAf8ECDAGAQH/AgEAMB0GA1UdDgQWBBSgbrlw+Y2ZLaWUOGuRtIKAlhbjsjAf
BgNVHSMEGDAWgBSRPj8ICx3rdTFdUf031X7XECyZOTANBgkqhkiG9w0BAQUFAAOC
AQEANBL0o+3t4IS6JnJuZtl7FM/xC7+4s2ph+KLXCV8mSg7MjxN0XTJhxlKHG0Qq
PBt/vvfE9rL4wSkBYYknJE64MSiT4x0FWis6sgBPQncL2un+z/1WCKT1fy5953GR
ZzMri/t3gnbtZOX2eZ+moLRoF51q4EVW6DT3NyHRqUSUtjhXeZ/Z8uPxeihwDoKT
aqMxhrzLcD3g80Vnb3I4ybWJitCS/6hQ8d6MAfNBefMxsJmxPs4PrgenyqzZLouN
wq4BNeSweM/kur15nAAhh+Zdr+ahl33SygDB3J2nP5/g7Ow6/kDhA6rE4tJZB0Gz
BO/1LODDrQI0g0HM7P0frxb4rA==
-----END CERTIFICATE-----
