Certificate:
    Data:
        Version: 3 (0x2)
        Serial Number: 4 (0x4)
    Signature Algorithm: sha1WithRSAEncryption
        Issuer: DC=org, DC=simple, O=Simple Inc, OU=Simple Root CA, CN=Simple Root CA
        Validity
            Not Before: May 16 11:40:57 2015 GMT
            Not After : May 15 11:40:57 2025 GMT
        Subject: DC=org, DC=simple, O=Simple Inc, OU=Simple Signing CA, CN=Simple Signing CA
        Subject Public Key Info:
            Public Key Algorithm: rsaEncryption
                Public-Key: (2048 bit)
                Modulus:
                    00:e2:cb:ec:cc:d3:50:1f:a4:e4:72:ee:db:a9:11:
                    d6:b7:0e:e7:a5:28:c9:16:90:90:96:8f:10:e3:0d:
                    3c:0a:13:26:1a:a9:e2:36:56:76:98:aa:fd:26:2c:
                    7d:cc:69:6b:5f:9e:c2:59:90:6a:6e:ce:d3:f7:e8:
                    bb:ef:63:fa:7c:9e:21:fa:1b:85:4a:5c:55:59:fa:
                    f2:fb:51:d7:7d:b2:ca:79:2a:b0:f1:25:4b:1e:1a:
                    bc:f9:34:e8:79:a2:56:ce:be:77:36:be:cc:1b:3c:
                    52:1b:ef:88:2a:7d:eb:52:1b:32:6b:5d:42:90:1c:
                    be:5a:f4:3e:3b:9b:0d:37:ff:ce:92:e1:af:59:81:
                    f6:b5:5c:d8:f7:04:4a:5d:89:0a:e1:76:68:ed:23:
                    02:c2:48:8d:41:2c:b7:24:6e:5f:79:da:3f:1c:f9:
                    78:0b:0b:4a:0a:6d:ee:d7:b1:28:fc:73:f4:bc:d5:
                    6c:31:fe:23:b4:1a:2c:1f:54:30:73:19:70:97:25:
                    7b:ec:d8:64:3f:e7:52:d1:d5:bc:86:8a:ca:d5:d2:
                    6f:61:e6:b1:d2:2b:95:03:81:a1:4b:71:94:f3:64:
                    88:b8:4a:38:0e:ad:29:dd:9d:84:50:e8:d3:34:ad:
                    5e:eb:77:9b:52:df:98:c7:79:6b:a7:09:47:72:a8:
                    ea:09
                Exponent: 65537 (0x10001)
        X509v3 extensions:
            X509v3 Key Usage: critical
                Certificate Sign, CRL Sign
            X509v3 Basic Constraints: critical
                CA:TRUE, pathlen:0
            X509v3 Subject Key Identifier: 
                A0:6E:B9:70:F9:8D:99:2D:A5:94:38:6B:91:B4:82:80:96:16:E3:B2
            X509v3 Authority Key Identifier: 
                keyid:91:3E:3F:08:0B:1D:EB:75:31:5D:51:FD:37:D5:7E:D7:10:2C:99:39

    Signature Algorithm: sha1WithRSAEncryption
         85:c6:30:31:dd:6c:72:63:70:a8:70:63:95:f5:02:55:89:8f:
         76:a4:c2:6b:8f:ed:22:4d:79:1f:61:60:b3:f8:15:fd:89:57:
         5b:ed:31:59:9a:28:95:ca:0e:53:34:c3:56:4a:47:7c:be:b9:
         1f:c1:6f:98:b2:d6:12:09:25:13:0d:5b:b6:78:ad:7b:fa:31:
         b2:34:c3:15:23:c4:7b:54:3e:86:5d:5c:94:0a:aa:02:a2:79:
         ee:55:fb:6e:29:b1:95:73:5b:73:c4:47:33:e6:e1:ef:6e:09:
         59:f1:12:d4:6e:f5:8e:a9:f1:27:c3:25:91:8d:37:49:01:b0:
         c1:ca:11:ac:6f:4f:1e:5c:1b:61:bd:9e:ed:7b:e8:19:fa:8a:
         5f:ec:d3:21:e9:ef:12:52:8d:e0:8b:46:58:02:ec:38:3a:3e:
         e4:cc:71:b9:0d:21:5b:8f:18:b3:92:87:67:22:99:0c:64:9a:
         21:a5:0a:69:fe:ab:1c:06:64:f9:60:e6:85:71:d3:e1:18:b2:
         f0:6b:7f:3d:21:c6:88:c1:75:af:20:b4:bb:60:77:b7:73:19:
         6d:73:70:03:f6:7c:e6:01:a0:64:61:9c:15:7d:6d:34:93:3f:
         f4:08:a0:b4:37:2f:c9:88:78:ba:e0:8c:c1:ee:31:df:d2:4d:
         49:0f:19:80
-----BEGIN CERTIFICATE-----
MIIDzzCCAregAwIBAgIBBDANBgkqhkiG9w0BAQUFADB0MRMwEQYKCZImiZPyLGQB
GRYDb3JnMRYwFAYKCZImiZPyLGQBGRYGc2ltcGxlMRMwEQYDVQQKDApTaW1wbGUg
SW5jMRcwFQYDVQQLDA5TaW1wbGUgUm9vdCBDQTEXMBUGA1UEAwwOU2ltcGxlIFJv
b3QgQ0EwHhcNMTUwNTE2MTE0MDU3WhcNMjUwNTE1MTE0MDU3WjB6MRMwEQYKCZIm
iZPyLGQBGRYDb3JnMRYwFAYKCZImiZPyLGQBGRYGc2ltcGxlMRMwEQYDVQQKDApT
aW1wbGUgSW5jMRowGAYDVQQLDBFTaW1wbGUgU2lnbmluZyBDQTEaMBgGA1UEAwwR
U2ltcGxlIFNpZ25pbmcgQ0EwggEiMA0GCSqGSIb3DQEBAQUAA4IBDwAwggEKAoIB
AQDiy+zM01AfpORy7tupEda3DuelKMkWkJCWjxDjDTwKEyYaqeI2VnaYqv0mLH3M
aWtfnsJZkGpuztP36LvvY/p8niH6G4VKXFVZ+vL7Udd9ssp5KrDxJUseGrz5NOh5
olbOvnc2vswbPFIb74gqfetSGzJrXUKQHL5a9D47mw03/86S4a9Zgfa1XNj3BEpd
iQrhdmjtIwLCSI1BLLckbl952j8c+XgLC0oKbe7XsSj8c/S81Wwx/iO0GiwfVDBz
GXCXJXvs2GQ/51LR1byGisrV0m9h5rHSK5UDgaFLcZTzZIi4SjgOrSndnYRQ6NM0
rV7rd5tS35jHeWunCUdyqOoJAgMBAAGjZjBkMA4GA1UdDwEB/wQEAwIBBjASBgNV
HRMBAf8ECDAGAQH/AgEAMB0GA1UdDgQWBBSgbrlw+Y2ZLaWUOGuRtIKAlhbjsjAf
BgNVHSMEGDAWgBSRPj8ICx3rdTFdUf031X7XECyZOTANBgkqhkiG9w0BAQUFAAOC
AQEAhcYwMd1scmNwqHBjlfUCVYmPdqTCa4/tIk15H2Fgs/gV/YlXW+0xWZoolcoO
UzTDVkpHfL65H8FvmLLWEgklEw1btnite/oxsjTDFSPEe1Q+hl1clAqqAqJ57lX7
bimxlXNbc8RHM+bh724JWfES1G71jqnxJ8MlkY03SQGwwcoRrG9PHlwbYb2e7Xvo
GfqKX+zTIenvElKN4ItGWALsODo+5MxxuQ0hW48Ys5KHZyKZDGSaIaUKaf6rHAZk
+WDmhXHT4Riy8Gt/PSHGiMF1ryC0u2B3t3MZbXNwA/Z85gGgZGGcFX1tNJM/9Aig
tDcvyYh4uuCMwe4x39JNSQ8ZgA==
-----END CERTIFICATE-----
