Certificate:
    Data:
        Version: 3 (0x2)
        Serial Number: 1 (0x1)
        Signature Algorithm: sha1WithRSAEncryption
        Issuer: DC=org, DC=simple, O=Simple Inc, OU=Simple Signing CA, CN=Simple Signing CA
        Validity
            Not Before: May 16 11:44:23 2015 GMT
            Not After : May 15 11:44:23 2017 GMT
        Subject: DC=org, DC=simple, O=Simple Inc, CN=www.simple.org
        Subject Public Key Info:
            Public Key Algorithm: rsaEncryption
                Public-Key: (2048 bit)
                Modulus:
                    00:e8:b9:05:e3:92:95:f0:13:16:f9:c2:b1:fc:eb:
                    92:c6:1f:5c:22:3c:61:12:fa:2a:e0:41:1d:f2:32:
                    04:18:fb:55:3d:af:b3:f4:ef:ee:28:30:25:c4:ea:
                    ae:2a:95:9b:bd:88:52:ff:05:aa:9f:09:15:8a:35:
                    ea:25:b7:bd:56:68:41:f0:77:df:ba:8a:8d:9f:aa:
                    9e:c6:bc:22:9f:85:ed:a5:a0:00:8e:3c:3c:45:9f:
                    f4:2d:8d:c6:a2:9f:8d:fc:d1:0f:9d:67:89:9d:2c:
                    0f:3d:a5:33:70:de:13:68:f8:ff:e4:12:c7:84:61:
                    74:d3:f3:90:cc:99:0c:75:27:f0:c3:f4:c6:c4:41:
                    09:80:66:bd:5a:cb:18:82:7d:b6:01:80:a3:6a:7c:
                    0d:4b:12:60:6e:b0:22:df:32:1d:d2:0b:43:0c:72:
                    07:9f:9b:8e:25:bc:0d:25:45:f9:d2:ca:17:9e:a7:
                    5b:df:ff:03:fc:0c:c4:c8:78:15:7f:e6:a9:a9:a7:
                    81:74:e3:ad:0c:9d:74:ae:1a:74:02:37:14:06:14:
                    e7:4e:e6:5d:af:d6:06:e6:ab:0f:04:a9:b1:80:04:
                    a7:e0:88:6f:d8:ed:b7:b3:db:d4:1b:f5:bc:16:ab:
                    37:6f:14:ce:4e:33:73:00:d6:44:a4:74:00:4b:c9:
                    44:4d
                Exponent: 65537 (0x10001)
        X509v3 extensions:
            X509v3 Key Usage: critical
                Digital Signature, Key Encipherment
            X509v3 Basic Constraints: 
                CA:FALSE
            X509v3 Extended Key Usage: 
                TLS Web Server Authentication, TLS Web Client Authentication
            X509v3 Subject Key Identifier: 
                1B:06:B0:E3:1B:3D:1E:03:1E:9C:27:03:C1:26:99:6A:56:A8:ED:AC
            X509v3 Authority Key Identifier: 
                keyid:A0:6E:B9:70:F9:8D:99:2D:A5:94:38:6B:91:B4:82:80:96:16:E3:B2

            X509v3 Subject Alternative Name: 
                DNS:www.simple.org
    Signature Algorithm: sha1WithRSAEncryption
        5b:82:16:dc:7a:8b:09:c4:a3:b4:b9:f1:56:e5:06:ea:b6:6a:
        e6:bc:c2:83:e1:1c:6c:ab:e0:33:5f:de:2a:f5:30:25:a9:36:
        73:3e:21:6d:06:25:be:8a:6c:d2:01:6d:59:c6:fa:89:b6:b7:
        e5:4e:2e:9f:33:d4:3d:bf:74:ca:a0:c9:4d:6f:ff:46:7d:e0:
        59:af:76:61:68:5d:4d:5a:c9:11:7d:5a:2c:c1:8f:68:d2:e3:
        5f:38:ff:a5:f6:c9:08:6f:a7:ee:80:49:81:ba:ec:ff:fb:f0:
        e9:78:67:1f:98:92:a7:78:56:36:f5:8e:b3:b1:38:1f:e3:09:
        10:b5:23:d1:98:3e:11:28:1a:90:eb:b9:73:66:46:9b:49:8f:
        8b:35:b4:37:88:32:ac:45:c4:3a:d5:c4:d7:33:57:c4:b6:dc:
        1b:07:39:7a:f2:cf:7c:97:e3:17:29:58:bf:a4:a8:1f:b1:e9:
        89:24:b0:35:c1:eb:e8:f5:33:50:09:35:77:10:1c:96:f7:44:
        23:bf:a5:d7:01:b8:4c:6f:31:54:8f:12:4a:9c:08:d1:0c:29:
        67:d9:52:59:5f:c1:48:ef:4c:4a:0a:a4:3b:01:c5:de:4d:04:
        80:33:73:12:64:1c:25:c9:ae:08:0a:6c:69:15:49:c2:20:a7:
        d0:e0:87:c4
-----BEGIN CERTIFICATE-----
MIID6TCCAtGgAwIBAgIBATANBgkqhkiG9w0BAQUFADB6MRMwEQYKCZImiZPyLGQB
GRYDb3JnMRYwFAYKCZImiZPyLGQBGRYGc2ltcGxlMRMwEQYDVQQKDApTaW1wbGUg
SW5jMRowGAYDVQQLDBFTaW1wbGUgU2lnbmluZyBDQTEaMBgGA1UEAwwRU2ltcGxl
IFNpZ25pbmcgQ0EwHhcNMTUwNTE2MTE0NDIzWhcNMTcwNTE1MTE0NDIzWjBbMRMw
EQYKCZImiZPyLGQBGRYDb3JnMRYwFAYKCZImiZPyLGQBGRYGc2ltcGxlMRMwEQYD
VQQKDApTaW1wbGUgSW5jMRcwFQYDVQQDDA53d3cuc2ltcGxlLm9yZzCCASIwDQYJ
KoZIhvcNAQEBBQADggEPADCCAQoCggEBAOi5BeOSlfATFvnCsfzrksYfXCI8YRL6
KuBBHfIyBBj7VT2vs/Tv7igwJcTqriqVm72IUv8Fqp8JFYo16iW3vVZoQfB337qK
jZ+qnsa8Ip+F7aWgAI48PEWf9C2NxqKfjfzRD51niZ0sDz2lM3DeE2j4/+QSx4Rh
dNPzkMyZDHUn8MP0xsRBCYBmvVrLGIJ9tgGAo2p8DUsSYG6wIt8yHdILQwxyB5+b
jiW8DSVF+dLKF56nW9//A/wMxMh4FX/mqamngXTjrQyddK4adAI3FAYU507mXa/W
BuarDwSpsYAEp+CIb9jtt7Pb1Bv1vBarN28Uzk4zcwDWRKR0AEvJRE0CAwEAAaOB
mDCBlTAOBgNVHQ8BAf8EBAMCBaAwCQYDVR0TBAIwADAdBgNVHSUEFjAUBggrBgEF
BQcDAQYIKwYBBQUHAwIwHQYDVR0OBBYEFBsGsOMbPR4DHpwnA8EmmWpWqO2sMB8G
A1UdIwQYMBaAFKBuuXD5jZktpZQ4a5G0goCWFuOyMBkGA1UdEQQSMBCCDnd3dy5z
aW1wbGUub3JnMA0GCSqGSIb3DQEBBQUAA4IBAQBbghbceosJxKO0ufFW5Qbqtmrm
vMKD4Rxsq+AzX94q9TAlqTZzPiFtBiW+imzSAW1ZxvqJtrflTi6fM9Q9v3TKoMlN
b/9GfeBZr3ZhaF1NWskRfVoswY9o0uNfOP+l9skIb6fugEmBuuz/+/DpeGcfmJKn
eFY29Y6zsTgf4wkQtSPRmD4RKBqQ67lzZkabSY+LNbQ3iDKsRcQ61cTXM1fEttwb
Bzl68s98l+MXKVi/pKgfsemJJLA1wevo9TNQCTV3EByW90Qjv6XXAbhMbzFUjxJK
nAjRDCln2VJZX8FI70xKCqQ7AcXeTQSAM3MSZBwlya4ICmxpFUnCIKfQ4IfE
-----END CERTIFICATE-----
