Certificate:
    Data:
        Version: 3 (0x2)
        Serial Number: 2 (0x2)
    Signature Algorithm: sha1WithRSAEncryption
        Issuer: DC=org, DC=simple, O=Simple Inc, OU=Simple Signing CA, CN=Simple Signing CA
        Validity
            Not Before: May 16 11:51:02 2015 GMT
            Not After : May 15 11:51:02 2017 GMT
        Subject: DC=org, DC=simple, O=Simple Inc, CN=www.simple.org
        Subject Public Key Info:
            Public Key Algorithm: rsaEncryption
                Public-Key: (2048 bit)
                Modulus:
                    00:e8:b9:05:e3:92:95:f0:13:16:f9:c2:b1:fc:eb:
                    92:c6:1f:5c:22:3c:61:12:fa:2a:e0:41:1d:f2:32:
                    04:18:fb:55:3d:af:b3:f4:ef:ee:28:30:25:c4:ea:
                    ae:2a:95:9b:bd:88:52:ff:05:aa:9f:09:15:8a:35:
                    ea:25:b7:bd:56:68:41:f0:77:df:ba:8a:8d:9f:aa:
                    9e:c6:bc:22:9f:85:ed:a5:a0:00:8e:3c:3c:45:9f:
                    f4:2d:8d:c6:a2:9f:8d:fc:d1:0f:9d:67:89:9d:2c:
                    0f:3d:a5:33:70:de:13:68:f8:ff:e4:12:c7:84:61:
                    74:d3:f3:90:cc:99:0c:75:27:f0:c3:f4:c6:c4:41:
                    09:80:66:bd:5a:cb:18:82:7d:b6:01:80:a3:6a:7c:
                    0d:4b:12:60:6e:b0:22:df:32:1d:d2:0b:43:0c:72:
                    07:9f:9b:8e:25:bc:0d:25:45:f9:d2:ca:17:9e:a7:
                    5b:df:ff:03:fc:0c:c4:c8:78:15:7f:e6:a9:a9:a7:
                    81:74:e3:ad:0c:9d:74:ae:1a:74:02:37:14:06:14:
                    e7:4e:e6:5d:af:d6:06:e6:ab:0f:04:a9:b1:80:04:
                    a7:e0:88:6f:d8:ed:b7:b3:db:d4:1b:f5:bc:16:ab:
                    37:6f:14:ce:4e:33:73:00:d6:44:a4:74:00:4b:c9:
                    44:4d
                Exponent: 65537 (0x10001)
        X509v3 extensions:
            X509v3 Key Usage: critical
                Digital Signature, Key Encipherment
            X509v3 Basic Constraints: 
                CA:FALSE
            X509v3 Extended Key Usage: 
                TLS Web Server Authentication, TLS Web Client Authentication
            X509v3 Subject Key Identifier: 
                1B:06:B0:E3:1B:3D:1E:03:1E:9C:27:03:C1:26:99:6A:56:A8:ED:AC
            X509v3 Authority Key Identifier: 
                keyid:A0:6E:B9:70:F9:8D:99:2D:A5:94:38:6B:91:B4:82:80:96:16:E3:B2

            X509v3 Subject Alternative Name: 
                DNS:www.simple.org
    Signature Algorithm: sha1WithRSAEncryption
         8a:65:1c:a0:07:b9:95:34:f4:08:f8:1c:c2:88:ac:65:79:61:
         c3:b5:79:4b:1d:0c:9d:e2:47:a2:e3:a1:3b:5e:a0:66:20:fe:
         92:55:c8:ea:11:5c:90:d7:d9:1b:73:67:9b:e1:06:9f:df:67:
         9c:69:8f:21:24:26:9d:09:3f:a4:45:ec:93:8f:79:95:cd:06:
         8e:bf:ae:61:84:d6:56:04:44:b4:19:4d:03:35:13:3c:82:b9:
         b5:d1:41:0b:2d:30:e4:a0:da:d1:ce:92:0b:c9:de:db:40:5a:
         06:84:83:89:89:3c:5f:7c:48:28:a1:a2:a0:33:0d:89:d8:ac:
         1d:63:96:62:b7:87:f1:c6:08:c1:eb:74:07:b0:0f:33:e9:f1:
         bf:ae:8e:12:2e:02:70:87:81:79:04:1c:ab:16:b8:bd:c3:92:
         c8:5b:98:8d:6b:96:75:91:33:13:bb:b2:17:b8:e0:c0:a7:01:
         47:1c:38:74:bd:21:c1:ba:af:c7:6c:f6:c7:a5:d7:8b:12:9f:
         bb:b2:9e:82:0e:cd:62:c7:67:67:4b:e0:4e:24:5a:c7:d0:ad:
         4f:f8:e9:0e:2c:32:15:76:2b:72:56:21:2b:d9:c9:27:15:73:
         b2:17:e2:72:49:60:78:ad:05:fe:c5:f6:f2:18:50:79:5c:52:
         68:1e:6a:d7
-----BEGIN CERTIFICATE-----
MIID6TCCAtGgAwIBAgIBAjANBgkqhkiG9w0BAQUFADB6MRMwEQYKCZImiZPyLGQB
GRYDb3JnMRYwFAYKCZImiZPyLGQBGRYGc2ltcGxlMRMwEQYDVQQKDApTaW1wbGUg
SW5jMRowGAYDVQQLDBFTaW1wbGUgU2lnbmluZyBDQTEaMBgGA1UEAwwRU2ltcGxl
IFNpZ25pbmcgQ0EwHhcNMTUwNTE2MTE1MTAyWhcNMTcwNTE1MTE1MTAyWjBbMRMw
EQYKCZImiZPyLGQBGRYDb3JnMRYwFAYKCZImiZPyLGQBGRYGc2ltcGxlMRMwEQYD
VQQKDApTaW1wbGUgSW5jMRcwFQYDVQQDDA53d3cuc2ltcGxlLm9yZzCCASIwDQYJ
KoZIhvcNAQEBBQADggEPADCCAQoCggEBAOi5BeOSlfATFvnCsfzrksYfXCI8YRL6
KuBBHfIyBBj7VT2vs/Tv7igwJcTqriqVm72IUv8Fqp8JFYo16iW3vVZoQfB337qK
jZ+qnsa8Ip+F7aWgAI48PEWf9C2NxqKfjfzRD51niZ0sDz2lM3DeE2j4/+QSx4Rh
dNPzkMyZDHUn8MP0xsRBCYBmvVrLGIJ9tgGAo2p8DUsSYG6wIt8yHdILQwxyB5+b
jiW8DSVF+dLKF56nW9//A/wMxMh4FX/mqamngXTjrQyddK4adAI3FAYU507mXa/W
BuarDwSpsYAEp+CIb9jtt7Pb1Bv1vBarN28Uzk4zcwDWRKR0AEvJRE0CAwEAAaOB
mDCBlTAOBgNVHQ8BAf8EBAMCBaAwCQYDVR0TBAIwADAdBgNVHSUEFjAUBggrBgEF
BQcDAQYIKwYBBQUHAwIwHQYDVR0OBBYEFBsGsOMbPR4DHpwnA8EmmWpWqO2sMB8G
A1UdIwQYMBaAFKBuuXD5jZktpZQ4a5G0goCWFuOyMBkGA1UdEQQSMBCCDnd3dy5z
aW1wbGUub3JnMA0GCSqGSIb3DQEBBQUAA4IBAQCKZRygB7mVNPQI+BzCiKxleWHD
tXlLHQyd4kei46E7XqBmIP6SVcjqEVyQ19kbc2eb4Qaf32ecaY8hJCadCT+kReyT
j3mVzQaOv65hhNZWBES0GU0DNRM8grm10UELLTDkoNrRzpILyd7bQFoGhIOJiTxf
fEgooaKgMw2J2KwdY5Zit4fxxgjB63QHsA8z6fG/ro4SLgJwh4F5BByrFri9w5LI
W5iNa5Z1kTMTu7IXuODApwFHHDh0vSHBuq/HbPbHpdeLEp+7sp6CDs1ix2dnS+BO
JFrH0K1P+OkOLDIVdityViEr2cknFXOyF+JySWB4rQX+xfbyGFB5XFJoHmrX
-----END CERTIFICATE-----
